target datalayout = "e-m:e-p270:32:32-p271:32:32-p272:64:64-i64:64-i128:128-f80:128-n8:16:32:64-S128"
target triple = "x86_64-pc-linux-gnu"

%struct.H5O_msg_class_t = type { i32, ptr, i64, i32, ptr, ptr, ptr, ptr, ptr, ptr, ptr, ptr, ptr, ptr, ptr, ptr, ptr, ptr, ptr, ptr }
%struct.H5O_shared_t = type { i32, ptr, i32, %union.anon }
%union.anon = type { %struct.H5O_mesg_loc_t }
%struct.H5O_mesg_loc_t = type { i32, i64 }
%struct.H5A_t = type { %struct.H5O_shared_t, %struct.H5O_loc_t, i8, %struct.H5G_name_t, ptr }
%struct.H5O_loc_t = type { ptr, i64, i8 }
%struct.H5G_name_t = type { ptr, ptr, i32 }
%struct.H5A_shared_t = type { i8, ptr, i32, ptr, i64, ptr, i64, ptr, i64, i32, i32 }

@H5O_init_g = external global i8, align 1
@H5_libterm_g = external global i8, align 1
@H5O_MSG_DTYPE = external constant [1 x %struct.H5O_msg_class_t], align 16
@.str.1 = private unnamed_addr constant [101 x i8] c"generated/home/dtcxzyw/WorkSpace/Projects/compilers/llvm-opt-benchmark/bench/hdf5/hdf5/src/H5Oattr.c\00", align 1
@H5E_ATTR_g = external global i64, align 8
@H5E_LINKCOUNT_g = external global i64, align 8
@.str.2 = private unnamed_addr constant [37 x i8] c"unable to adjust datatype link count\00", align 1
@H5O_MSG_SDSPACE = external constant [1 x %struct.H5O_msg_class_t], align 16
@.str.3 = private unnamed_addr constant [38 x i8] c"unable to adjust dataspace link count\00", align 1
@__func__.H5O__attr_link = private unnamed_addr constant [15 x i8] c"H5O__attr_link\00", align 1

; Function Attrs: nounwind uwtable
define i32 @H5O__attr_link(ptr noundef %0, ptr noundef %1, ptr noundef %2) #1 {
  %4 = alloca ptr, align 8
  %5 = alloca ptr, align 8
  %6 = alloca ptr, align 8
  %7 = alloca ptr, align 8
  %8 = alloca i32, align 4
  %9 = alloca i8, align 1
  store ptr %0, ptr %4, align 8, !tbaa !3
  store ptr %1, ptr %5, align 8, !tbaa !8
  store ptr %2, ptr %6, align 8, !tbaa !18
  call void @llvm.lifetime.start.p0(i64 8, ptr %7) #9
  %10 = load ptr, ptr %6, align 8, !tbaa !18
  store ptr %10, ptr %7, align 8, !tbaa !27
  call void @llvm.lifetime.start.p0(i64 4, ptr %8) #9
  store i32 0, ptr %8, align 4, !tbaa !10
  call void @llvm.lifetime.start.p0(i64 1, ptr %9) #9
  store i8 0, ptr %9, align 1, !tbaa !19
  %11 = load i8, ptr @H5O_init_g, align 1, !tbaa !19, !range !21, !noundef !22
  %12 = trunc i8 %11 to i1
  br i1 %12, label %17, label %13

13:                                               ; preds = %3
  %14 = load i8, ptr @H5_libterm_g, align 1, !tbaa !19, !range !21, !noundef !22
  %15 = trunc i8 %14 to i1
  %16 = xor i1 %15, true
  br label %17

17:                                               ; preds = %13, %3
  %18 = phi i1 [ true, %3 ], [ %16, %13 ]
  %19 = xor i1 %18, true
  %20 = xor i1 %19, true
  %21 = zext i1 %20 to i32
  %22 = sext i32 %21 to i64
  %23 = call i64 @llvm.expect.i64(i64 %22, i64 1)
  %24 = icmp ne i64 %23, 0
  br i1 %24, label %25, label %87

25:                                               ; preds = %17
  %26 = load ptr, ptr getelementptr inbounds nuw (%struct.H5O_msg_class_t, ptr @H5O_MSG_DTYPE, i32 0, i32 11), align 8, !tbaa !58
  %27 = load ptr, ptr %4, align 8, !tbaa !3
  %28 = load ptr, ptr %5, align 8, !tbaa !8
  %29 = load ptr, ptr %7, align 8, !tbaa !27
  %30 = getelementptr inbounds nuw %struct.H5A_t, ptr %29, i32 0, i32 4
  %31 = load ptr, ptr %30, align 8, !tbaa !33
  %32 = getelementptr inbounds nuw %struct.H5A_shared_t, ptr %31, i32 0, i32 3
  %33 = load ptr, ptr %32, align 8, !tbaa !56
  %34 = call i32 %26(ptr noundef %27, ptr noundef %28, ptr noundef %33)
  %35 = icmp slt i32 %34, 0
  br i1 %35, label %36, label %55

36:                                               ; preds = %25
  br label %37

37:                                               ; preds = %36
  br label %38

38:                                               ; preds = %37
  br label %39

39:                                               ; preds = %38
  %40 = load i64, ptr @H5E_ATTR_g, align 8, !tbaa !14
  %41 = load i64, ptr @H5E_LINKCOUNT_g, align 8, !tbaa !14
  %42 = call i32 (ptr, ptr, i32, i64, i64, ptr, ...) @H5E_printf_stack(ptr noundef @.str.1, ptr noundef @__func__.H5O__attr_link, i32 noundef 614, i64 noundef %40, i64 noundef %41, ptr noundef @.str.2)
  br label %43

43:                                               ; preds = %39
  br label %44

44:                                               ; preds = %43
  store i8 1, ptr %9, align 1, !tbaa !19
  %45 = load i8, ptr %9, align 1, !tbaa !19, !range !21, !noundef !22
  %46 = trunc i8 %45 to i1
  %47 = zext i1 %46 to i8
  store i8 %47, ptr %9, align 1, !tbaa !19
  br label %48

48:                                               ; preds = %44
  br label %49

49:                                               ; preds = %48
  br label %50

50:                                               ; preds = %49
  store i32 -1, ptr %8, align 4, !tbaa !10
  br label %86

51:                                               ; No predecessors!
  br label %52

52:                                               ; preds = %51
  br label %53

53:                                               ; preds = %52
  br label %54

54:                                               ; preds = %53
  br label %55

55:                                               ; preds = %54, %25
  %56 = load ptr, ptr getelementptr inbounds nuw (%struct.H5O_msg_class_t, ptr @H5O_MSG_SDSPACE, i32 0, i32 11), align 8, !tbaa !58
  %57 = load ptr, ptr %4, align 8, !tbaa !3
  %58 = load ptr, ptr %5, align 8, !tbaa !8
  %59 = load ptr, ptr %7, align 8, !tbaa !27
  %60 = getelementptr inbounds nuw %struct.H5A_t, ptr %59, i32 0, i32 4
  %61 = load ptr, ptr %60, align 8, !tbaa !33
  %62 = getelementptr inbounds nuw %struct.H5A_shared_t, ptr %61, i32 0, i32 5
  %63 = load ptr, ptr %62, align 8, !tbaa !57
  %64 = call i32 %56(ptr noundef %57, ptr noundef %58, ptr noundef %63)
  %65 = icmp slt i32 %64, 0
  br i1 %65, label %66, label %85

66:                                               ; preds = %55
  br label %67

67:                                               ; preds = %66
  br label %68

68:                                               ; preds = %67
  br label %69

69:                                               ; preds = %68
  %70 = load i64, ptr @H5E_ATTR_g, align 8, !tbaa !14
  %71 = load i64, ptr @H5E_LINKCOUNT_g, align 8, !tbaa !14
  %72 = call i32 (ptr, ptr, i32, i64, i64, ptr, ...) @H5E_printf_stack(ptr noundef @.str.1, ptr noundef @__func__.H5O__attr_link, i32 noundef 616, i64 noundef %70, i64 noundef %71, ptr noundef @.str.3)
  br label %73

73:                                               ; preds = %69
  br label %74

74:                                               ; preds = %73
  store i8 1, ptr %9, align 1, !tbaa !19
  %75 = load i8, ptr %9, align 1, !tbaa !19, !range !21, !noundef !22
  %76 = trunc i8 %75 to i1
  %77 = zext i1 %76 to i8
  store i8 %77, ptr %9, align 1, !tbaa !19
  br label %78

78:                                               ; preds = %74
  br label %79

79:                                               ; preds = %78
  br label %80

80:                                               ; preds = %79
  store i32 -1, ptr %8, align 4, !tbaa !10
  br label %86

81:                                               ; No predecessors!
  br label %82

82:                                               ; preds = %81
  br label %83

83:                                               ; preds = %82
  br label %84

84:                                               ; preds = %83
  br label %85

85:                                               ; preds = %84, %55
  br label %86

86:                                               ; preds = %85, %80, %50
  br label %87

87:                                               ; preds = %86, %17
  %88 = load i32, ptr %8, align 4, !tbaa !10
  call void @llvm.lifetime.end.p0(i64 1, ptr %9) #9
  call void @llvm.lifetime.end.p0(i64 4, ptr %8) #9
  call void @llvm.lifetime.end.p0(i64 8, ptr %7) #9
  ret i32 %88
}