; Function Attrs: nounwind uwtable
define range(i32 -1, 1) i32 @H5O__attr_link(ptr noundef %0, ptr noundef %1, ptr noundef readonly captures(none) %2) local_unnamed_addr #1 {
  %4 = load i8, ptr @H5O_init_g, align 1, !tbaa !3, !range !7, !noundef !8
  %5 = trunc nuw i8 %4 to i1
  %6 = load i8, ptr @H5_libterm_g, align 1, !range !7
  %7 = trunc nuw i8 %6 to i1
  %8 = xor i1 %7, true
  %9 = select i1 %5, i1 true, i1 %8
  br i1 %9, label %10, label %33, !prof !9

10:                                               ; preds = %3
  %11 = load ptr, ptr getelementptr inbounds nuw (i8, ptr @H5O_MSG_DTYPE, i64 88), align 8, !tbaa !43
  %12 = getelementptr inbounds nuw i8, ptr %2, i64 96
  %13 = load ptr, ptr %12, align 8, !tbaa !14
  %14 = getelementptr inbounds nuw i8, ptr %13, i64 24
  %15 = load ptr, ptr %14, align 8, !tbaa !35
  %16 = tail call i32 %11(ptr noundef %0, ptr noundef %1, ptr noundef %15) #12
  %17 = icmp slt i32 %16, 0
  br i1 %17, label %18, label %22

18:                                               ; preds = %10
  %19 = load i64, ptr @H5E_ATTR_g, align 8, !tbaa !10
  %20 = load i64, ptr @H5E_LINKCOUNT_g, align 8, !tbaa !10
  %21 = tail call i32 (ptr, ptr, i32, i64, i64, ptr, ...) @H5E_printf_stack(ptr noundef nonnull @.str.1, ptr noundef nonnull @__func__.H5O__attr_link, i32 noundef 614, i64 noundef %19, i64 noundef %20, ptr noundef nonnull @.str.2) #12
  br label %33

22:                                               ; preds = %10
  %23 = load ptr, ptr getelementptr inbounds nuw (i8, ptr @H5O_MSG_SDSPACE, i64 88), align 8, !tbaa !43
  %24 = load ptr, ptr %12, align 8, !tbaa !14
  %25 = getelementptr inbounds nuw i8, ptr %24, i64 40
  %26 = load ptr, ptr %25, align 8, !tbaa !36
  %27 = tail call i32 %23(ptr noundef %0, ptr noundef %1, ptr noundef %26) #12
  %28 = icmp slt i32 %27, 0
  br i1 %28, label %29, label %33

29:                                               ; preds = %22
  %30 = load i64, ptr @H5E_ATTR_g, align 8, !tbaa !10
  %31 = load i64, ptr @H5E_LINKCOUNT_g, align 8, !tbaa !10
  %32 = tail call i32 (ptr, ptr, i32, i64, i64, ptr, ...) @H5E_printf_stack(ptr noundef nonnull @.str.1, ptr noundef nonnull @__func__.H5O__attr_link, i32 noundef 616, i64 noundef %30, i64 noundef %31, ptr noundef nonnull @.str.3) #12
  br label %33

33:                                               ; preds = %18, %29, %22, %3
  %.0 = phi i32 [ -1, %18 ], [ -1, %29 ], [ 0, %22 ], [ 0, %3 ]
  ret i32 %.0
}